target datalayout = "e-m:e-p270:32:32-p271:32:32-p272:64:64-i64:64-i128:128-f80:128-n8:16:32:64-S128"
target triple = "x86_64-pc-linux-gnu"

%struct.Fraig_ManStruct_t_ = type { ptr, ptr, ptr, ptr, ptr, ptr, ptr, ptr, ptr, i32, i32, i32, i32, i32, i32, i32, i32, i32, i32, i32, i32, i64, i32, i32, i32, i32, i32, ptr, ptr, ptr, ptr, ptr, i32, ptr, ptr, ptr, ptr, ptr, ptr, i32, ptr, ptr, ptr, ptr, i32, i32, i32, i32, i32, i32, i32, i32, i32, i32, i32, i32, i32, i32, i32, i32, i32, i32, i32, i64, i64, i64, i64, i64, i64, i64, i64, i64, i64, i64, i64 }
%struct.Fraig_NodeVecStruct_t_ = type { i32, i32, ptr }

@.str = private unnamed_addr constant [40 x i8] c"Requesting a PI with a negative number\0A\00", align 1

; Function Attrs: nounwind uwtable
define ptr @Fraig_ManReadIthVar(ptr noundef %0, i32 noundef %1) #0 {
  %3 = alloca ptr, align 8
  %4 = alloca ptr, align 8
  %5 = alloca i32, align 4
  %6 = alloca i32, align 4
  %7 = alloca i32, align 4
  store ptr %0, ptr %4, align 8, !tbaa !3
  store i32 %1, ptr %5, align 4, !tbaa !29
  call void @llvm.lifetime.start.p0(i64 4, ptr %6) #3
  %8 = load i32, ptr %5, align 4, !tbaa !29
  %9 = icmp slt i32 %8, 0
  br i1 %9, label %10, label %12

10:                                               ; preds = %2
  %11 = call i32 (ptr, ...) @printf(ptr noundef @.str)
  store ptr null, ptr %3, align 8
  store i32 1, ptr %7, align 4
  br label %47

12:                                               ; preds = %2
  %13 = load i32, ptr %5, align 4, !tbaa !29
  %14 = load ptr, ptr %4, align 8, !tbaa !3
  %15 = getelementptr inbounds nuw %struct.Fraig_ManStruct_t_, ptr %14, i32 0, i32 0
  %16 = load ptr, ptr %15, align 8, !tbaa !8
  %17 = getelementptr inbounds nuw %struct.Fraig_NodeVecStruct_t_, ptr %16, i32 0, i32 1
  %18 = load i32, ptr %17, align 4, !tbaa !27
  %19 = icmp sge i32 %13, %18
  br i1 %19, label %20, label %37

20:                                               ; preds = %12
  %21 = load ptr, ptr %4, align 8, !tbaa !3
  %22 = getelementptr inbounds nuw %struct.Fraig_ManStruct_t_, ptr %21, i32 0, i32 0
  %23 = load ptr, ptr %22, align 8, !tbaa !8
  %24 = getelementptr inbounds nuw %struct.Fraig_NodeVecStruct_t_, ptr %23, i32 0, i32 1
  %25 = load i32, ptr %24, align 4, !tbaa !27
  store i32 %25, ptr %6, align 4, !tbaa !29
  br label %26

26:                                               ; preds = %33, %20
  %27 = load i32, ptr %6, align 4, !tbaa !29
  %28 = load i32, ptr %5, align 4, !tbaa !29
  %29 = icmp sle i32 %27, %28
  br i1 %29, label %30, label %36

30:                                               ; preds = %26
  %31 = load ptr, ptr %4, align 8, !tbaa !3
  %32 = call ptr @Fraig_NodeCreatePi(ptr noundef %31)
  br label %33

33:                                               ; preds = %30
  %34 = load i32, ptr %6, align 4, !tbaa !29
  %35 = add nsw i32 %34, 1
  store i32 %35, ptr %6, align 4, !tbaa !29
  br label %26, !llvm.loop !59

36:                                               ; preds = %26
  br label %37

37:                                               ; preds = %36, %12
  %38 = load ptr, ptr %4, align 8, !tbaa !3
  %39 = getelementptr inbounds nuw %struct.Fraig_ManStruct_t_, ptr %38, i32 0, i32 0
  %40 = load ptr, ptr %39, align 8, !tbaa !8
  %41 = getelementptr inbounds nuw %struct.Fraig_NodeVecStruct_t_, ptr %40, i32 0, i32 2
  %42 = load ptr, ptr %41, align 8, !tbaa !24
  %43 = load i32, ptr %5, align 4, !tbaa !29
  %44 = sext i32 %43 to i64
  %45 = getelementptr inbounds ptr, ptr %42, i64 %44
  %46 = load ptr, ptr %45, align 8, !tbaa !30
  store ptr %46, ptr %3, align 8
  store i32 1, ptr %7, align 4
  br label %47

47:                                               ; preds = %37, %10
  call void @llvm.lifetime.end.p0(i64 4, ptr %6) #3
  %48 = load ptr, ptr %3, align 8
  ret ptr %48
}