; Function Attrs: nounwind uwtable
define ptr @Fraig_ManReadIthVar(ptr noundef %0, i32 noundef %1) local_unnamed_addr #2 {
  %3 = icmp slt i32 %1, 0
  br i1 %3, label %4, label %5

4:                                                ; preds = %2
  %puts = tail call i32 @puts(ptr nonnull dereferenceable(1) @str)
  br label %17

5:                                                ; preds = %2
  %6 = load ptr, ptr %0, align 8, !tbaa !3
  %7 = getelementptr inbounds nuw i8, ptr %6, i64 4
  %8 = load i32, ptr %7, align 4, !tbaa !25
  %.not = icmp slt i32 %1, %8
  br i1 %.not, label %.loopexit, label %.preheader

.preheader:                                       ; preds = %5, %.preheader
  %.014 = phi i32 [ %10, %.preheader ], [ %8, %5 ]
  %9 = tail call ptr @Fraig_NodeCreatePi(ptr noundef nonnull %0) #7
  %10 = add i32 %.014, 1
  %exitcond.not = icmp eq i32 %.014, %1
  br i1 %exitcond.not, label %.loopexit.loopexit, label %.preheader, !llvm.loop !55

.loopexit.loopexit:                               ; preds = %.preheader
  %.pre = load ptr, ptr %0, align 8, !tbaa !3
  br label %.loopexit

.loopexit:                                        ; preds = %.loopexit.loopexit, %5
  %11 = phi ptr [ %.pre, %.loopexit.loopexit ], [ %6, %5 ]
  %12 = getelementptr inbounds nuw i8, ptr %11, i64 8
  %13 = load ptr, ptr %12, align 8, !tbaa !22
  %14 = zext nneg i32 %1 to i64
  %15 = getelementptr inbounds nuw ptr, ptr %13, i64 %14
  %16 = load ptr, ptr %15, align 8, !tbaa !27
  br label %17

17:                                               ; preds = %.loopexit, %4
  %.010 = phi ptr [ null, %4 ], [ %16, %.loopexit ]
  ret ptr %.010
}